target datalayout = "e-m:e-p270:32:32-p271:32:32-p272:64:64-i64:64-i128:128-f80:128-n8:16:32:64-S128"
target triple = "x86_64-pc-linux-gnu"

%struct.darktable_t = type { %struct.dt_codepath_t, i32, i32, ptr, ptr, ptr, ptr, ptr, ptr, ptr, ptr, ptr, ptr, ptr, ptr, ptr, ptr, ptr, ptr, ptr, ptr, ptr, ptr, ptr, ptr, ptr, ptr, ptr, ptr, ptr, [64 x %struct.dt_pthread_mutex_t], %struct.dt_pthread_mutex_t, %struct.dt_pthread_mutex_t, %struct.dt_pthread_mutex_t, %struct.dt_pthread_mutex_t, %struct.dt_pthread_mutex_t, ptr, ptr, ptr, ptr, ptr, ptr, ptr, ptr, ptr, ptr, ptr, ptr, ptr, %struct.dt_lua_state_t, ptr, double, ptr, i32, [47 x i32], i32, i32, ptr, ptr, %struct.dt_sys_resources_t, %struct.dt_backthumb_t, %struct.dt_gimp_t }
%struct.dt_codepath_t = type { i8, [3 x i8] }
%struct.dt_pthread_mutex_t = type { %union.pthread_mutex_t }
%union.pthread_mutex_t = type { %struct.__pthread_mutex_s }
%struct.__pthread_mutex_s = type { i32, i32, i32, i32, i32, i16, i16, %struct.__pthread_internal_list }
%struct.__pthread_internal_list = type { ptr, ptr }
%struct.dt_lua_state_t = type { i32 }
%struct.dt_sys_resources_t = type { i64, i64, ptr, ptr, i32 }
%struct.dt_backthumb_t = type { double, double, i32, i32, i32, i32 }
%struct.dt_gimp_t = type { i32, ptr, ptr, i32, i32 }
%struct.dt_tag_t = type { i32, ptr, ptr, ptr, i32, i32, i32 }

@darktable = external global %struct.darktable_t, align 8
@.str = private unnamed_addr constant [41 x i8] c"[sql] %s:%d, function %s(): prepare \22%s\22\00", align 1
@.str.1 = private unnamed_addr constant [115 x i8] c"generated/home/dtcxzyw/WorkSpace/Projects/compilers/llvm-opt-benchmark/bench/darktable/darktable/src/common/tags.c\00", align 1
@stderr = external global ptr, align 8
@.str.3 = private unnamed_addr constant [53 x i8] c"sqlite3 error: %s:%d, function %s(), query \22%s\22: %s\0A\00", align 1
@.str.26 = private unnamed_addr constant [1 x i8] zeroinitializer, align 1
@.str.27 = private unnamed_addr constant [3 x i8] c"%d\00", align 1
@.str.28 = private unnamed_addr constant [26 x i8] c"SELECT COUNT(*) FROM (%s)\00", align 1
@__FUNCTION__.dt_tag_get_attached = private unnamed_addr constant [20 x i8] c"dt_tag_get_attached\00", align 1
@.str.29 = private unnamed_addr constant [210 x i8] c"SELECT DISTINCT I.tagid, T.name, T.flags, T.synonyms, COUNT(DISTINCT I.imgid) AS inb FROM main.tagged_images AS I JOIN data.tags AS T ON T.id = I.tagid WHERE I.imgid IN (%s)%s GROUP BY I.tagid  ORDER by T.name\00", align 1
@.str.30 = private unnamed_addr constant [39 x i8] c" AND T.id NOT IN memory.darktable_tags\00", align 1
@.str.31 = private unnamed_addr constant [2 x i8] c"|\00", align 1

; Function Attrs: nounwind uwtable
define i32 @dt_tag_get_attached(i32 noundef %0, ptr noundef %1, i32 noundef %2) #0 {
  %4 = alloca i32, align 4
  %5 = alloca ptr, align 8
  %6 = alloca i32, align 4
  %7 = alloca ptr, align 8
  %8 = alloca i32, align 4
  %9 = alloca ptr, align 8
  %10 = alloca ptr, align 8
  %11 = alloca i32, align 4
  %12 = alloca i32, align 4
  %13 = alloca ptr, align 8
  %14 = alloca i32, align 4
  %15 = alloca ptr, align 8
  %16 = alloca i32, align 4
  store i32 %0, ptr %4, align 4, !tbaa !52
  store ptr %1, ptr %5, align 8, !tbaa !66
  store i32 %2, ptr %6, align 4, !tbaa !52
  call void @llvm.lifetime.start.p0(i64 8, ptr %7) #8
  call void @llvm.lifetime.start.p0(i64 4, ptr %8) #8
  store i32 0, ptr %8, align 4, !tbaa !52
  call void @llvm.lifetime.start.p0(i64 8, ptr %9) #8
  store ptr null, ptr %9, align 8, !tbaa !6
  %17 = load i32, ptr %4, align 4, !tbaa !52
  %18 = icmp sgt i32 %17, 0
  br i1 %18, label %19, label %22

19:                                               ; preds = %3
  %20 = load i32, ptr %4, align 4, !tbaa !52
  %21 = call noalias ptr (ptr, ...) @g_strdup_printf(ptr noundef @.str.27, i32 noundef %20)
  store ptr %21, ptr %9, align 8, !tbaa !6
  store i32 1, ptr %8, align 4, !tbaa !52
  br label %68

22:                                               ; preds = %3
  %23 = load ptr, ptr getelementptr inbounds nuw (%struct.darktable_t, ptr @darktable, i32 0, i32 22), align 8, !tbaa !77
  %24 = call ptr @dt_selection_get_list_query(ptr noundef %23, i32 noundef 0, i32 noundef 0)
  store ptr %24, ptr %9, align 8, !tbaa !6
  call void @llvm.lifetime.start.p0(i64 8, ptr %10) #8
  %25 = load ptr, ptr %9, align 8, !tbaa !6
  %26 = call noalias ptr (ptr, ...) @g_strdup_printf(ptr noundef @.str.28, ptr noundef %25)
  store ptr %26, ptr %10, align 8, !tbaa !6
  br label %27

27:                                               ; preds = %22
  br label %28

28:                                               ; preds = %27
  %29 = load i32, ptr getelementptr inbounds nuw (%struct.darktable_t, ptr @darktable, i32 0, i32 2), align 8, !tbaa !14
  %30 = and i32 256, %29
  %31 = icmp ne i32 %30, 0
  br i1 %31, label %32, label %39

32:                                               ; preds = %28
  %33 = load i32, ptr getelementptr inbounds nuw (%struct.darktable_t, ptr @darktable, i32 0, i32 2), align 8, !tbaa !14
  %34 = xor i32 %33, -1
  %35 = and i32 0, %34
  %36 = icmp ne i32 %35, 0
  br i1 %36, label %39, label %37

37:                                               ; preds = %32
  %38 = load ptr, ptr %10, align 8, !tbaa !6
  call void (ptr, ...) @dt_print_ext(ptr noundef @.str, ptr noundef @.str.1, i32 noundef 749, ptr noundef @__FUNCTION__.dt_tag_get_attached, ptr noundef %38)
  br label %39

39:                                               ; preds = %37, %32, %28
  br label %40

40:                                               ; preds = %39
  br label %41

41:                                               ; preds = %40
  call void @llvm.lifetime.start.p0(i64 4, ptr %11) #8
  %42 = load ptr, ptr getelementptr inbounds nuw (%struct.darktable_t, ptr @darktable, i32 0, i32 18), align 8, !tbaa !51
  %43 = call ptr @dt_database_get(ptr noundef %42)
  %44 = load ptr, ptr %10, align 8, !tbaa !6
  %45 = call i32 @sqlite3_prepare_v2(ptr noundef %43, ptr noundef %44, i32 noundef -1, ptr noundef %7, ptr noundef null)
  store i32 %45, ptr %11, align 4, !tbaa !52
  %46 = load i32, ptr %11, align 4, !tbaa !52
  %47 = icmp ne i32 %46, 0
  br i1 %47, label %48, label %55

48:                                               ; preds = %41
  %49 = load ptr, ptr @stderr, align 8, !tbaa !53
  %50 = load ptr, ptr %10, align 8, !tbaa !6
  %51 = load ptr, ptr getelementptr inbounds nuw (%struct.darktable_t, ptr @darktable, i32 0, i32 18), align 8, !tbaa !51
  %52 = call ptr @dt_database_get(ptr noundef %51)
  %53 = call ptr @sqlite3_errmsg(ptr noundef %52)
  %54 = call i32 (ptr, ptr, ...) @fprintf(ptr noundef %49, ptr noundef @.str.3, ptr noundef @.str.1, i32 noundef 749, ptr noundef @__FUNCTION__.dt_tag_get_attached, ptr noundef %50, ptr noundef %53) #8
  br label %55

55:                                               ; preds = %48, %41
  call void @llvm.lifetime.end.p0(i64 4, ptr %11) #8
  br label %56

56:                                               ; preds = %55
  br label %57

57:                                               ; preds = %56
  %58 = load ptr, ptr %7, align 8, !tbaa !55
  %59 = call i32 @sqlite3_step(ptr noundef %58)
  %60 = icmp eq i32 %59, 100
  br i1 %60, label %61, label %64

61:                                               ; preds = %57
  %62 = load ptr, ptr %7, align 8, !tbaa !55
  %63 = call i32 @sqlite3_column_int(ptr noundef %62, i32 noundef 0)
  store i32 %63, ptr %8, align 4, !tbaa !52
  br label %64

64:                                               ; preds = %61, %57
  %65 = load ptr, ptr %7, align 8, !tbaa !55
  %66 = call i32 @sqlite3_finalize(ptr noundef %65)
  %67 = load ptr, ptr %10, align 8, !tbaa !6
  call void @g_free(ptr noundef %67)
  call void @llvm.lifetime.end.p0(i64 8, ptr %10) #8
  br label %68

68:                                               ; preds = %64, %19
  call void @llvm.lifetime.start.p0(i64 4, ptr %12) #8
  store i32 0, ptr %12, align 4, !tbaa !52
  %69 = load ptr, ptr %9, align 8, !tbaa !6
  %70 = icmp ne ptr %69, null
  br i1 %70, label %71, label %191

71:                                               ; preds = %68
  call void @llvm.lifetime.start.p0(i64 8, ptr %13) #8
  %72 = load ptr, ptr %9, align 8, !tbaa !6
  %73 = load i32, ptr %6, align 4, !tbaa !52
  %74 = icmp ne i32 %73, 0
  %75 = select i1 %74, ptr @.str.30, ptr @.str.26
  %76 = call noalias ptr (ptr, ...) @g_strdup_printf(ptr noundef @.str.29, ptr noundef %72, ptr noundef %75)
  store ptr %76, ptr %13, align 8, !tbaa !6
  br label %77

77:                                               ; preds = %71
  br label %78

78:                                               ; preds = %77
  %79 = load i32, ptr getelementptr inbounds nuw (%struct.darktable_t, ptr @darktable, i32 0, i32 2), align 8, !tbaa !14
  %80 = and i32 256, %79
  %81 = icmp ne i32 %80, 0
  br i1 %81, label %82, label %89

82:                                               ; preds = %78
  %83 = load i32, ptr getelementptr inbounds nuw (%struct.darktable_t, ptr @darktable, i32 0, i32 2), align 8, !tbaa !14
  %84 = xor i32 %83, -1
  %85 = and i32 0, %84
  %86 = icmp ne i32 %85, 0
  br i1 %86, label %89, label %87

87:                                               ; preds = %82
  %88 = load ptr, ptr %13, align 8, !tbaa !6
  call void (ptr, ...) @dt_print_ext(ptr noundef @.str, ptr noundef @.str.1, i32 noundef 769, ptr noundef @__FUNCTION__.dt_tag_get_attached, ptr noundef %88)
  br label %89

89:                                               ; preds = %87, %82, %78
  br label %90

90:                                               ; preds = %89
  br label %91

91:                                               ; preds = %90
  call void @llvm.lifetime.start.p0(i64 4, ptr %14) #8
  %92 = load ptr, ptr getelementptr inbounds nuw (%struct.darktable_t, ptr @darktable, i32 0, i32 18), align 8, !tbaa !51
  %93 = call ptr @dt_database_get(ptr noundef %92)
  %94 = load ptr, ptr %13, align 8, !tbaa !6
  %95 = call i32 @sqlite3_prepare_v2(ptr noundef %93, ptr noundef %94, i32 noundef -1, ptr noundef %7, ptr noundef null)
  store i32 %95, ptr %14, align 4, !tbaa !52
  %96 = load i32, ptr %14, align 4, !tbaa !52
  %97 = icmp ne i32 %96, 0
  br i1 %97, label %98, label %105

98:                                               ; preds = %91
  %99 = load ptr, ptr @stderr, align 8, !tbaa !53
  %100 = load ptr, ptr %13, align 8, !tbaa !6
  %101 = load ptr, ptr getelementptr inbounds nuw (%struct.darktable_t, ptr @darktable, i32 0, i32 18), align 8, !tbaa !51
  %102 = call ptr @dt_database_get(ptr noundef %101)
  %103 = call ptr @sqlite3_errmsg(ptr noundef %102)
  %104 = call i32 (ptr, ptr, ...) @fprintf(ptr noundef %99, ptr noundef @.str.3, ptr noundef @.str.1, i32 noundef 769, ptr noundef @__FUNCTION__.dt_tag_get_attached, ptr noundef %100, ptr noundef %103) #8
  br label %105

105:                                              ; preds = %98, %91
  call void @llvm.lifetime.end.p0(i64 4, ptr %14) #8
  br label %106

106:                                              ; preds = %105
  br label %107

107:                                              ; preds = %106
  %108 = load ptr, ptr %9, align 8, !tbaa !6
  call void @g_free(ptr noundef %108)
  %109 = load ptr, ptr %5, align 8, !tbaa !66
  store ptr null, ptr %109, align 8, !tbaa !59
  br label %110

110:                                              ; preds = %176, %107
  %111 = load ptr, ptr %7, align 8, !tbaa !55
  %112 = call i32 @sqlite3_step(ptr noundef %111)
  %113 = icmp eq i32 %112, 100
  br i1 %113, label %114, label %187

114:                                              ; preds = %110
  call void @llvm.lifetime.start.p0(i64 8, ptr %15) #8
  %115 = call noalias ptr @g_malloc0(i64 noundef 48) #11
  store ptr %115, ptr %15, align 8, !tbaa !78
  %116 = load ptr, ptr %7, align 8, !tbaa !55
  %117 = call i32 @sqlite3_column_int(ptr noundef %116, i32 noundef 0)
  %118 = load ptr, ptr %15, align 8, !tbaa !78
  %119 = getelementptr inbounds nuw %struct.dt_tag_t, ptr %118, i32 0, i32 0
  store i32 %117, ptr %119, align 8, !tbaa !62
  %120 = load ptr, ptr %7, align 8, !tbaa !55
  %121 = call ptr @sqlite3_column_text(ptr noundef %120, i32 noundef 1)
  %122 = call noalias ptr @g_strdup(ptr noundef %121)
  %123 = load ptr, ptr %15, align 8, !tbaa !78
  %124 = getelementptr inbounds nuw %struct.dt_tag_t, ptr %123, i32 0, i32 1
  store ptr %122, ptr %124, align 8, !tbaa !80
  %125 = load ptr, ptr %15, align 8, !tbaa !78
  %126 = getelementptr inbounds nuw %struct.dt_tag_t, ptr %125, i32 0, i32 1
  %127 = load ptr, ptr %126, align 8, !tbaa !80
  %128 = call ptr @g_strrstr(ptr noundef %127, ptr noundef @.str.31)
  %129 = load ptr, ptr %15, align 8, !tbaa !78
  %130 = getelementptr inbounds nuw %struct.dt_tag_t, ptr %129, i32 0, i32 2
  store ptr %128, ptr %130, align 8, !tbaa !81
  %131 = load ptr, ptr %15, align 8, !tbaa !78
  %132 = getelementptr inbounds nuw %struct.dt_tag_t, ptr %131, i32 0, i32 2
  %133 = load ptr, ptr %132, align 8, !tbaa !81
  %134 = icmp ne ptr %133, null
  br i1 %134, label %135, label %140

135:                                              ; preds = %114
  %136 = load ptr, ptr %15, align 8, !tbaa !78
  %137 = getelementptr inbounds nuw %struct.dt_tag_t, ptr %136, i32 0, i32 2
  %138 = load ptr, ptr %137, align 8, !tbaa !81
  %139 = getelementptr inbounds i8, ptr %138, i64 1
  br label %144

140:                                              ; preds = %114
  %141 = load ptr, ptr %15, align 8, !tbaa !78
  %142 = getelementptr inbounds nuw %struct.dt_tag_t, ptr %141, i32 0, i32 1
  %143 = load ptr, ptr %142, align 8, !tbaa !80
  br label %144

144:                                              ; preds = %140, %135
  %145 = phi ptr [ %139, %135 ], [ %143, %140 ]
  %146 = load ptr, ptr %15, align 8, !tbaa !78
  %147 = getelementptr inbounds nuw %struct.dt_tag_t, ptr %146, i32 0, i32 2
  store ptr %145, ptr %147, align 8, !tbaa !81
  %148 = load ptr, ptr %7, align 8, !tbaa !55
  %149 = call i32 @sqlite3_column_int(ptr noundef %148, i32 noundef 2)
  %150 = load ptr, ptr %15, align 8, !tbaa !78
  %151 = getelementptr inbounds nuw %struct.dt_tag_t, ptr %150, i32 0, i32 6
  store i32 %149, ptr %151, align 8, !tbaa !82
  %152 = load ptr, ptr %7, align 8, !tbaa !55
  %153 = call ptr @sqlite3_column_text(ptr noundef %152, i32 noundef 3)
  %154 = call noalias ptr @g_strdup(ptr noundef %153)
  %155 = load ptr, ptr %15, align 8, !tbaa !78
  %156 = getelementptr inbounds nuw %struct.dt_tag_t, ptr %155, i32 0, i32 3
  store ptr %154, ptr %156, align 8, !tbaa !83
  call void @llvm.lifetime.start.p0(i64 4, ptr %16) #8
  %157 = load ptr, ptr %7, align 8, !tbaa !55
  %158 = call i32 @sqlite3_column_int(ptr noundef %157, i32 noundef 4)
  store i32 %158, ptr %16, align 4, !tbaa !52
  %159 = load i32, ptr %16, align 4, !tbaa !52
  %160 = load ptr, ptr %15, align 8, !tbaa !78
  %161 = getelementptr inbounds nuw %struct.dt_tag_t, ptr %160, i32 0, i32 4
  store i32 %159, ptr %161, align 8, !tbaa !84
  %162 = load i32, ptr %8, align 4, !tbaa !52
  %163 = icmp eq i32 %162, 0
  br i1 %163, label %164, label %165

164:                                              ; preds = %144
  br label %176

165:                                              ; preds = %144
  %166 = load i32, ptr %16, align 4, !tbaa !52
  %167 = load i32, ptr %8, align 4, !tbaa !52
  %168 = icmp eq i32 %166, %167
  br i1 %168, label %169, label %170

169:                                              ; preds = %165
  br label %174

170:                                              ; preds = %165
  %171 = load i32, ptr %16, align 4, !tbaa !52
  %172 = icmp eq i32 %171, 0
  %173 = select i1 %172, i32 0, i32 1
  br label %174

174:                                              ; preds = %170, %169
  %175 = phi i32 [ 2, %169 ], [ %173, %170 ]
  br label %176

176:                                              ; preds = %174, %164
  %177 = phi i32 [ 0, %164 ], [ %175, %174 ]
  %178 = load ptr, ptr %15, align 8, !tbaa !78
  %179 = getelementptr inbounds nuw %struct.dt_tag_t, ptr %178, i32 0, i32 5
  store i32 %177, ptr %179, align 4, !tbaa !85
  %180 = load ptr, ptr %5, align 8, !tbaa !66
  %181 = load ptr, ptr %180, align 8, !tbaa !59
  %182 = load ptr, ptr %15, align 8, !tbaa !78
  %183 = call ptr @g_list_append(ptr noundef %181, ptr noundef %182)
  %184 = load ptr, ptr %5, align 8, !tbaa !66
  store ptr %183, ptr %184, align 8, !tbaa !59
  %185 = load i32, ptr %12, align 4, !tbaa !52
  %186 = add i32 %185, 1
  store i32 %186, ptr %12, align 4, !tbaa !52
  call void @llvm.lifetime.end.p0(i64 4, ptr %16) #8
  call void @llvm.lifetime.end.p0(i64 8, ptr %15) #8
  br label %110

187:                                              ; preds = %110
  %188 = load ptr, ptr %7, align 8, !tbaa !55
  %189 = call i32 @sqlite3_finalize(ptr noundef %188)
  %190 = load ptr, ptr %13, align 8, !tbaa !6
  call void @g_free(ptr noundef %190)
  call void @llvm.lifetime.end.p0(i64 8, ptr %13) #8
  br label %191

191:                                              ; preds = %187, %68
  %192 = load i32, ptr %12, align 4, !tbaa !52
  call void @llvm.lifetime.end.p0(i64 4, ptr %12) #8
  call void @llvm.lifetime.end.p0(i64 8, ptr %9) #8
  call void @llvm.lifetime.end.p0(i64 4, ptr %8) #8
  call void @llvm.lifetime.end.p0(i64 8, ptr %7) #8
  ret i32 %192
}