; Function Attrs: nounwind uwtable
define i32 @dt_tag_get_attached(i32 noundef %0, ptr noundef captures(none) %1, i32 noundef %2) local_unnamed_addr #0 {
  %4 = alloca ptr, align 8
  call void @llvm.lifetime.start.p0(i64 8, ptr nonnull %4) #11
  %5 = icmp sgt i32 %0, 0
  br i1 %5, label %6, label %8

6:                                                ; preds = %3
  %7 = tail call noalias ptr (ptr, ...) @g_strdup_printf(ptr noundef nonnull @.str.27, i32 noundef %0) #11
  br label %35

8:                                                ; preds = %3
  %9 = load ptr, ptr getelementptr inbounds nuw (i8, ptr @darktable, i64 168), align 8, !tbaa !69
  %10 = tail call ptr @dt_selection_get_list_query(ptr noundef %9, i32 noundef 0, i32 noundef 0) #11
  %11 = tail call noalias ptr (ptr, ...) @g_strdup_printf(ptr noundef nonnull @.str.28, ptr noundef %10) #11
  %12 = load i32, ptr getelementptr inbounds nuw (i8, ptr @darktable, i64 8), align 8, !tbaa !9
  %13 = and i32 %12, 256
  %.not = icmp eq i32 %13, 0
  br i1 %.not, label %15, label %14

14:                                               ; preds = %8
  tail call void (ptr, ...) @dt_print_ext(ptr noundef nonnull @.str, ptr noundef nonnull @.str.1, i32 noundef 749, ptr noundef nonnull @__FUNCTION__.dt_tag_get_attached, ptr noundef %11) #11
  br label %15

15:                                               ; preds = %14, %8
  %16 = load ptr, ptr getelementptr inbounds nuw (i8, ptr @darktable, i64 136), align 8, !tbaa !49
  %17 = tail call ptr @dt_database_get(ptr noundef %16) #11
  %18 = call i32 @sqlite3_prepare_v2(ptr noundef %17, ptr noundef %11, i32 noundef -1, ptr noundef nonnull %4, ptr noundef null) #11
  %.not44 = icmp eq i32 %18, 0
  br i1 %.not44, label %25, label %19

19:                                               ; preds = %15
  %20 = load ptr, ptr @stderr, align 8, !tbaa !50
  %21 = load ptr, ptr getelementptr inbounds nuw (i8, ptr @darktable, i64 136), align 8, !tbaa !49
  %22 = call ptr @dt_database_get(ptr noundef %21) #11
  %23 = call ptr @sqlite3_errmsg(ptr noundef %22) #11
  %24 = call i32 (ptr, ptr, ...) @fprintf(ptr noundef %20, ptr noundef nonnull @.str.3, ptr noundef nonnull @.str.1, i32 noundef 749, ptr noundef nonnull @__FUNCTION__.dt_tag_get_attached, ptr noundef %11, ptr noundef %23) #12
  br label %25

25:                                               ; preds = %19, %15
  %26 = load ptr, ptr %4, align 8, !tbaa !52
  %27 = call i32 @sqlite3_step(ptr noundef %26) #11
  %28 = icmp eq i32 %27, 100
  br i1 %28, label %29, label %32

29:                                               ; preds = %25
  %30 = load ptr, ptr %4, align 8, !tbaa !52
  %31 = call i32 @sqlite3_column_int(ptr noundef %30, i32 noundef 0) #11
  br label %32

32:                                               ; preds = %29, %25
  %.1 = phi i32 [ %31, %29 ], [ 0, %25 ]
  %33 = load ptr, ptr %4, align 8, !tbaa !52
  %34 = call i32 @sqlite3_finalize(ptr noundef %33) #11
  call void @g_free(ptr noundef %11) #11
  br label %35

35:                                               ; preds = %32, %6
  %.039 = phi ptr [ %7, %6 ], [ %10, %32 ]
  %.0 = phi i32 [ 1, %6 ], [ %.1, %32 ]
  %.not45 = icmp eq ptr %.039, null
  br i1 %.not45, label %97, label %36

36:                                               ; preds = %35
  %.not46 = icmp eq i32 %2, 0
  %37 = select i1 %.not46, ptr @.str.26, ptr @.str.30
  %38 = call noalias ptr (ptr, ...) @g_strdup_printf(ptr noundef nonnull @.str.29, ptr noundef nonnull %.039, ptr noundef nonnull %37) #11
  %39 = load i32, ptr getelementptr inbounds nuw (i8, ptr @darktable, i64 8), align 8, !tbaa !9
  %40 = and i32 %39, 256
  %.not47 = icmp eq i32 %40, 0
  br i1 %.not47, label %42, label %41

41:                                               ; preds = %36
  call void (ptr, ...) @dt_print_ext(ptr noundef nonnull @.str, ptr noundef nonnull @.str.1, i32 noundef 769, ptr noundef nonnull @__FUNCTION__.dt_tag_get_attached, ptr noundef %38) #11
  br label %42

42:                                               ; preds = %41, %36
  %43 = load ptr, ptr getelementptr inbounds nuw (i8, ptr @darktable, i64 136), align 8, !tbaa !49
  %44 = call ptr @dt_database_get(ptr noundef %43) #11
  %45 = call i32 @sqlite3_prepare_v2(ptr noundef %44, ptr noundef %38, i32 noundef -1, ptr noundef nonnull %4, ptr noundef null) #11
  %.not48 = icmp eq i32 %45, 0
  br i1 %.not48, label %52, label %46

46:                                               ; preds = %42
  %47 = load ptr, ptr @stderr, align 8, !tbaa !50
  %48 = load ptr, ptr getelementptr inbounds nuw (i8, ptr @darktable, i64 136), align 8, !tbaa !49
  %49 = call ptr @dt_database_get(ptr noundef %48) #11
  %50 = call ptr @sqlite3_errmsg(ptr noundef %49) #11
  %51 = call i32 (ptr, ptr, ...) @fprintf(ptr noundef %47, ptr noundef nonnull @.str.3, ptr noundef nonnull @.str.1, i32 noundef 769, ptr noundef nonnull @__FUNCTION__.dt_tag_get_attached, ptr noundef %38, ptr noundef %50) #12
  br label %52

52:                                               ; preds = %46, %42
  call void @g_free(ptr noundef nonnull %.039) #11
  store ptr null, ptr %1, align 8, !tbaa !63
  %53 = load ptr, ptr %4, align 8, !tbaa !52
  %54 = call i32 @sqlite3_step(ptr noundef %53) #11
  %55 = icmp eq i32 %54, 100
  br i1 %55, label %.lr.ph, label %._crit_edge

.lr.ph:                                           ; preds = %52
  %56 = icmp eq i32 %.0, 0
  br label %57

57:                                               ; preds = %.lr.ph, %71
  %.14150 = phi i32 [ 0, %.lr.ph ], [ %91, %71 ]
  %58 = call noalias dereferenceable_or_null(48) ptr @g_malloc0(i64 noundef 48) #14
  %59 = load ptr, ptr %4, align 8, !tbaa !52
  %60 = call i32 @sqlite3_column_int(ptr noundef %59, i32 noundef 0) #11
  store i32 %60, ptr %58, align 8, !tbaa !60
  %61 = load ptr, ptr %4, align 8, !tbaa !52
  %62 = call ptr @sqlite3_column_text(ptr noundef %61, i32 noundef 1) #11
  %63 = call noalias ptr @g_strdup(ptr noundef %62) #11
  %64 = getelementptr inbounds nuw i8, ptr %58, i64 8
  store ptr %63, ptr %64, align 8, !tbaa !70
  %65 = call ptr @g_strrstr(ptr noundef %63, ptr noundef nonnull @.str.31) #11
  %66 = getelementptr inbounds nuw i8, ptr %58, i64 16
  %.not49 = icmp eq ptr %65, null
  br i1 %.not49, label %69, label %67

67:                                               ; preds = %57
  %68 = getelementptr inbounds nuw i8, ptr %65, i64 1
  br label %71

69:                                               ; preds = %57
  %70 = load ptr, ptr %64, align 8, !tbaa !70
  br label %71

71:                                               ; preds = %69, %67
  %72 = phi ptr [ %68, %67 ], [ %70, %69 ]
  store ptr %72, ptr %66, align 8, !tbaa !71
  %73 = load ptr, ptr %4, align 8, !tbaa !52
  %74 = call i32 @sqlite3_column_int(ptr noundef %73, i32 noundef 2) #11
  %75 = getelementptr inbounds nuw i8, ptr %58, i64 40
  store i32 %74, ptr %75, align 8, !tbaa !72
  %76 = load ptr, ptr %4, align 8, !tbaa !52
  %77 = call ptr @sqlite3_column_text(ptr noundef %76, i32 noundef 3) #11
  %78 = call noalias ptr @g_strdup(ptr noundef %77) #11
  %79 = getelementptr inbounds nuw i8, ptr %58, i64 24
  store ptr %78, ptr %79, align 8, !tbaa !73
  %80 = load ptr, ptr %4, align 8, !tbaa !52
  %81 = call i32 @sqlite3_column_int(ptr noundef %80, i32 noundef 4) #11
  %82 = getelementptr inbounds nuw i8, ptr %58, i64 32
  store i32 %81, ptr %82, align 8, !tbaa !74
  %83 = icmp eq i32 %81, %.0
  %84 = icmp ne i32 %81, 0
  %85 = zext i1 %84 to i32
  %86 = select i1 %83, i32 2, i32 %85
  %87 = select i1 %56, i32 0, i32 %86
  %88 = getelementptr inbounds nuw i8, ptr %58, i64 36
  store i32 %87, ptr %88, align 4, !tbaa !75
  %89 = load ptr, ptr %1, align 8, !tbaa !63
  %90 = call ptr @g_list_append(ptr noundef %89, ptr noundef nonnull %58) #11
  store ptr %90, ptr %1, align 8, !tbaa !63
  %91 = add i32 %.14150, 1
  %92 = load ptr, ptr %4, align 8, !tbaa !52
  %93 = call i32 @sqlite3_step(ptr noundef %92) #11
  %94 = icmp eq i32 %93, 100
  br i1 %94, label %57, label %._crit_edge

._crit_edge:                                      ; preds = %71, %52
  %.141.lcssa = phi i32 [ 0, %52 ], [ %91, %71 ]
  %95 = load ptr, ptr %4, align 8, !tbaa !52
  %96 = call i32 @sqlite3_finalize(ptr noundef %95) #11
  call void @g_free(ptr noundef %38) #11
  br label %97

97:                                               ; preds = %._crit_edge, %35
  %.040 = phi i32 [ %.141.lcssa, %._crit_edge ], [ 0, %35 ]
  call void @llvm.lifetime.end.p0(i64 8, ptr nonnull %4) #11
  ret i32 %.040
}